target datalayout = "e-m:e-p270:32:32-p271:32:32-p272:64:64-i64:64-i128:128-f80:128-n8:16:32:64-S128"
target triple = "x86_64-pc-linux-gnu"

%struct.Node = type { i32 }
%struct.Expr = type { i32 }
%struct.Const = type { %struct.Expr, i32, i32, i32, i32, i64, i8, i8, i32 }
%struct.RelabelType = type { %struct.Expr, ptr, i32, i32, i32, i32, i32 }

; Function Attrs: inlinehint nounwind uwtable
define internal ptr @newNode(i64 noundef %0, i32 noundef %1) #4 {
  %3 = alloca i64, align 8
  %4 = alloca i32, align 4
  %5 = alloca ptr, align 8
  store i64 %0, ptr %3, align 8
  store i32 %1, ptr %4, align 4
  call void @llvm.lifetime.start.p0(i64 8, ptr %5) #7
  %6 = load i64, ptr %3, align 8
  %7 = call ptr @palloc0(i64 noundef %6)
  store ptr %7, ptr %5, align 8
  %8 = load i32, ptr %4, align 4
  %9 = load ptr, ptr %5, align 8
  %10 = getelementptr inbounds nuw %struct.Node, ptr %9, i32 0, i32 0
  store i32 %8, ptr %10, align 4
  %11 = load ptr, ptr %5, align 8
  call void @llvm.lifetime.end.p0(i64 8, ptr %5) #7
  ret ptr %11
}

; Function Attrs: nounwind uwtable
define dso_local ptr @applyRelabelType(ptr noundef %0, i32 noundef %1, i32 noundef %2, i32 noundef %3, i32 noundef %4, i32 noundef %5, i1 noundef zeroext %6) #0 {
  %8 = alloca ptr, align 8
  %9 = alloca ptr, align 8
  %10 = alloca i32, align 4
  %11 = alloca i32, align 4
  %12 = alloca i32, align 4
  %13 = alloca i32, align 4
  %14 = alloca i32, align 4
  %15 = alloca i8, align 1
  %16 = alloca ptr, align 8
  %17 = alloca ptr, align 8
  store ptr %0, ptr %9, align 8
  store i32 %1, ptr %10, align 4
  store i32 %2, ptr %11, align 4
  store i32 %3, ptr %12, align 4
  store i32 %4, ptr %13, align 4
  store i32 %5, ptr %14, align 4
  %18 = zext i1 %6 to i8
  store i8 %18, ptr %15, align 1
  br label %19

19:                                               ; preds = %29, %7
  %20 = load ptr, ptr %9, align 8
  %21 = icmp ne ptr %20, null
  br i1 %21, label %22, label %27

22:                                               ; preds = %19
  %23 = load ptr, ptr %9, align 8
  %24 = getelementptr inbounds nuw %struct.Node, ptr %23, i32 0, i32 0
  %25 = load i32, ptr %24, align 4
  %26 = icmp eq i32 %25, 27
  br label %27

27:                                               ; preds = %22, %19
  %28 = phi i1 [ false, %19 ], [ %26, %22 ]
  br i1 %28, label %29, label %33

29:                                               ; preds = %27
  %30 = load ptr, ptr %9, align 8
  %31 = getelementptr inbounds nuw %struct.RelabelType, ptr %30, i32 0, i32 1
  %32 = load ptr, ptr %31, align 8
  store ptr %32, ptr %9, align 8
  br label %19, !llvm.loop !11

33:                                               ; preds = %27
  %34 = load ptr, ptr %9, align 8
  %35 = icmp ne ptr %34, null
  br i1 %35, label %36, label %59

36:                                               ; preds = %33
  %37 = load ptr, ptr %9, align 8
  %38 = getelementptr inbounds nuw %struct.Node, ptr %37, i32 0, i32 0
  %39 = load i32, ptr %38, align 4
  %40 = icmp eq i32 %39, 7
  br i1 %40, label %41, label %59

41:                                               ; preds = %36
  call void @llvm.lifetime.start.p0(i64 8, ptr %16) #7
  %42 = load ptr, ptr %9, align 8
  store ptr %42, ptr %16, align 8
  %43 = load i8, ptr %15, align 1, !range !6, !noundef !7
  %44 = trunc i8 %43 to i1
  br i1 %44, label %48, label %45

45:                                               ; preds = %41
  %46 = load ptr, ptr %16, align 8
  %47 = call ptr @copyObjectImpl(ptr noundef %46)
  store ptr %47, ptr %16, align 8
  br label %48

48:                                               ; preds = %45, %41
  %49 = load i32, ptr %10, align 4
  %50 = load ptr, ptr %16, align 8
  %51 = getelementptr inbounds nuw %struct.Const, ptr %50, i32 0, i32 1
  store i32 %49, ptr %51, align 4
  %52 = load i32, ptr %11, align 4
  %53 = load ptr, ptr %16, align 8
  %54 = getelementptr inbounds nuw %struct.Const, ptr %53, i32 0, i32 2
  store i32 %52, ptr %54, align 8
  %55 = load i32, ptr %12, align 4
  %56 = load ptr, ptr %16, align 8
  %57 = getelementptr inbounds nuw %struct.Const, ptr %56, i32 0, i32 3
  store i32 %55, ptr %57, align 4
  %58 = load ptr, ptr %16, align 8
  store ptr %58, ptr %8, align 8
  call void @llvm.lifetime.end.p0(i64 8, ptr %16) #7
  br label %97

59:                                               ; preds = %36, %33
  %60 = load ptr, ptr %9, align 8
  %61 = call i32 @exprType(ptr noundef %60)
  %62 = load i32, ptr %10, align 4
  %63 = icmp eq i32 %61, %62
  br i1 %63, label %64, label %76

64:                                               ; preds = %59
  %65 = load ptr, ptr %9, align 8
  %66 = call i32 @exprTypmod(ptr noundef %65)
  %67 = load i32, ptr %11, align 4
  %68 = icmp eq i32 %66, %67
  br i1 %68, label %69, label %76

69:                                               ; preds = %64
  %70 = load ptr, ptr %9, align 8
  %71 = call i32 @exprCollation(ptr noundef %70)
  %72 = load i32, ptr %12, align 4
  %73 = icmp eq i32 %71, %72
  br i1 %73, label %74, label %76

74:                                               ; preds = %69
  %75 = load ptr, ptr %9, align 8
  store ptr %75, ptr %8, align 8
  br label %97

76:                                               ; preds = %69, %64, %59
  call void @llvm.lifetime.start.p0(i64 8, ptr %17) #7
  %77 = call ptr @newNode(i64 noundef 40, i32 noundef 27)
  store ptr %77, ptr %17, align 8
  %78 = load ptr, ptr %9, align 8
  %79 = load ptr, ptr %17, align 8
  %80 = getelementptr inbounds nuw %struct.RelabelType, ptr %79, i32 0, i32 1
  store ptr %78, ptr %80, align 8
  %81 = load i32, ptr %10, align 4
  %82 = load ptr, ptr %17, align 8
  %83 = getelementptr inbounds nuw %struct.RelabelType, ptr %82, i32 0, i32 2
  store i32 %81, ptr %83, align 8
  %84 = load i32, ptr %11, align 4
  %85 = load ptr, ptr %17, align 8
  %86 = getelementptr inbounds nuw %struct.RelabelType, ptr %85, i32 0, i32 3
  store i32 %84, ptr %86, align 4
  %87 = load i32, ptr %12, align 4
  %88 = load ptr, ptr %17, align 8
  %89 = getelementptr inbounds nuw %struct.RelabelType, ptr %88, i32 0, i32 4
  store i32 %87, ptr %89, align 8
  %90 = load i32, ptr %13, align 4
  %91 = load ptr, ptr %17, align 8
  %92 = getelementptr inbounds nuw %struct.RelabelType, ptr %91, i32 0, i32 5
  store i32 %90, ptr %92, align 4
  %93 = load i32, ptr %14, align 4
  %94 = load ptr, ptr %17, align 8
  %95 = getelementptr inbounds nuw %struct.RelabelType, ptr %94, i32 0, i32 6
  store i32 %93, ptr %95, align 8
  %96 = load ptr, ptr %17, align 8
  store ptr %96, ptr %8, align 8
  call void @llvm.lifetime.end.p0(i64 8, ptr %17) #7
  br label %97

97:                                               ; preds = %76, %74, %48
  %98 = load ptr, ptr %8, align 8
  ret ptr %98
}