; Function Attrs: nounwind uwtable
define dso_local ptr @applyRelabelType(ptr noundef %0, i32 noundef %1, i32 noundef %2, i32 noundef %3, i32 noundef %4, i32 noundef %5, i1 noundef zeroext %6) local_unnamed_addr #0 {
  %.not40 = icmp eq ptr %0, null
  br i1 %.not40, label %.critedge.split, label %.lr.ph

.lr.ph:                                           ; preds = %7, %9
  %.03641 = phi ptr [ %11, %9 ], [ %0, %7 ]
  %8 = load i32, ptr %.03641, align 4
  switch i32 %8, label %.split [
    i32 27, label %9
    i32 7, label %13
  ]

9:                                                ; preds = %.lr.ph
  %10 = getelementptr inbounds nuw i8, ptr %.03641, i64 8
  %11 = load ptr, ptr %10, align 8
  %.not = icmp eq ptr %11, null
  br i1 %.not, label %.critedge.split, label %.lr.ph, !llvm.loop !6

.split:                                           ; preds = %.lr.ph
  %12 = tail call i32 @exprType(ptr noundef nonnull %.03641)
  br label %.critedge.split

13:                                               ; preds = %.lr.ph
  br i1 %6, label %16, label %14

14:                                               ; preds = %13
  %15 = tail call ptr @copyObjectImpl(ptr noundef nonnull %.03641) #13
  br label %16

16:                                               ; preds = %14, %13
  %.035 = phi ptr [ %.03641, %13 ], [ %15, %14 ]
  %17 = getelementptr inbounds nuw i8, ptr %.035, i64 4
  store i32 %1, ptr %17, align 4
  %18 = getelementptr inbounds nuw i8, ptr %.035, i64 8
  store i32 %2, ptr %18, align 8
  %19 = getelementptr inbounds nuw i8, ptr %.035, i64 12
  store i32 %3, ptr %19, align 4
  br label %35

.critedge.split:                                  ; preds = %9, %7, %.split
  %.03639 = phi ptr [ %.03641, %.split ], [ null, %7 ], [ null, %9 ]
  %phi.call = phi i32 [ %12, %.split ], [ 0, %7 ], [ 0, %9 ]
  %20 = icmp eq i32 %phi.call, %1
  br i1 %20, label %21, label %27

21:                                               ; preds = %.critedge.split
  %22 = tail call i32 @exprTypmod(ptr noundef %.03639)
  %23 = icmp eq i32 %22, %2
  br i1 %23, label %24, label %27

24:                                               ; preds = %21
  %25 = tail call i32 @exprCollation(ptr noundef %.03639)
  %26 = icmp eq i32 %25, %3
  br i1 %26, label %35, label %27

27:                                               ; preds = %24, %21, %.critedge.split
  %28 = tail call noundef ptr @palloc0(i64 noundef 40) #13
  store i32 27, ptr %28, align 4
  %29 = getelementptr inbounds nuw i8, ptr %28, i64 8
  store ptr %.03639, ptr %29, align 8
  %30 = getelementptr inbounds nuw i8, ptr %28, i64 16
  store i32 %1, ptr %30, align 8
  %31 = getelementptr inbounds nuw i8, ptr %28, i64 20
  store i32 %2, ptr %31, align 4
  %32 = getelementptr inbounds nuw i8, ptr %28, i64 24
  store i32 %3, ptr %32, align 8
  %33 = getelementptr inbounds nuw i8, ptr %28, i64 28
  store i32 %4, ptr %33, align 4
  %34 = getelementptr inbounds nuw i8, ptr %28, i64 32
  store i32 %5, ptr %34, align 8
  br label %35

35:                                               ; preds = %24, %27, %16
  %.0 = phi ptr [ %.035, %16 ], [ %28, %27 ], [ %.03639, %24 ]
  ret ptr %.0
}